target datalayout = "e-m:e-p270:32:32-p271:32:32-p272:64:64-i64:64-i128:128-f80:128-n8:16:32:64-S128"
target triple = "x86_64-pc-linux-gnu"

%struct.Gia_Man_t_ = type { ptr, ptr, i32, i32, i32, i32, ptr, ptr, i32, i32, i32, ptr, ptr, %struct.Vec_Int_t_, %struct.Vec_Int_t_, i32, i32, i32, %struct.Vec_Int_t_, ptr, ptr, ptr, i32, i32, i32, i32, ptr, ptr, ptr, ptr, ptr, i32, i32, ptr, i32, ptr, ptr, ptr, ptr, ptr, ptr, ptr, ptr, ptr, ptr, ptr, ptr, ptr, ptr, ptr, ptr, ptr, ptr, %struct.Vec_Int_t_, %struct.Vec_Int_t_, ptr, ptr, ptr, ptr, ptr, ptr, ptr, ptr, ptr, ptr, ptr, ptr, ptr, ptr, ptr, ptr, ptr, ptr, ptr, ptr, ptr, i32, float, float, ptr, ptr, i32, ptr, ptr, ptr, ptr, ptr, ptr, ptr, ptr, ptr, ptr, ptr, ptr, ptr, ptr, ptr, i64, i64, ptr, ptr, i32, i32, i32, i32, i32, i32, i32, i32, i32, i32, i32, i32, ptr, ptr, ptr, ptr, ptr, ptr, ptr, ptr, i32, i32, i32, ptr, i32, i32, ptr, ptr, ptr, ptr, ptr, ptr, i32, i32, ptr, %struct.Vec_Int_t_, %struct.Vec_Int_t_, %struct.Vec_Int_t_, ptr, ptr, ptr, i32, i32, i32, i32, ptr, ptr, ptr, ptr, ptr }
%struct.Vec_Int_t_ = type { i32, i32, ptr }

@.str.1 = private unnamed_addr constant [9 x i8] c"%06x.aig\00", align 1
@.str.2 = private unnamed_addr constant [35 x i8] c"./abc -q \22&read %s; %s; &write %s\22\00", align 1
@stderr = external global ptr, align 8
@.str.3 = private unnamed_addr constant [58 x i8] c"The following command has returned non-zero exit status:\0A\00", align 1
@.str.4 = private unnamed_addr constant [6 x i8] c"\22%s\22\0A\00", align 1
@.str.5 = private unnamed_addr constant [30 x i8] c"Sorry for the inconvenience.\0A\00", align 1
@stdout = external global ptr, align 8

; Function Attrs: inlinehint nounwind uwtable
define internal i32 @Vec_IntSize(ptr noundef %0) #3 {
  %2 = alloca ptr, align 8
  store ptr %0, ptr %2, align 8, !tbaa !36
  %3 = load ptr, ptr %2, align 8, !tbaa !36
  %4 = getelementptr inbounds nuw %struct.Vec_Int_t_, ptr %3, i32 0, i32 1
  %5 = load i32, ptr %4, align 4, !tbaa !40
  ret i32 %5
}

; Function Attrs: inlinehint nounwind uwtable
define internal i32 @Gia_ManAndNum(ptr noundef %0) #3 {
  %2 = alloca ptr, align 8
  store ptr %0, ptr %2, align 8, !tbaa !3
  %3 = load ptr, ptr %2, align 8, !tbaa !3
  %4 = getelementptr inbounds nuw %struct.Gia_Man_t_, ptr %3, i32 0, i32 4
  %5 = load i32, ptr %4, align 8, !tbaa !14
  %6 = load ptr, ptr %2, align 8, !tbaa !3
  %7 = getelementptr inbounds nuw %struct.Gia_Man_t_, ptr %6, i32 0, i32 11
  %8 = load ptr, ptr %7, align 8, !tbaa !33
  %9 = call i32 @Vec_IntSize(ptr noundef %8)
  %10 = sub nsw i32 %5, %9
  %11 = load ptr, ptr %2, align 8, !tbaa !3
  %12 = getelementptr inbounds nuw %struct.Gia_Man_t_, ptr %11, i32 0, i32 12
  %13 = load ptr, ptr %12, align 8, !tbaa !34
  %14 = call i32 @Vec_IntSize(ptr noundef %13)
  %15 = sub nsw i32 %10, %14
  %16 = sub nsw i32 %15, 1
  ret i32 %16
}

; Function Attrs: nounwind uwtable
define ptr @Gia_StochProcessOne(ptr noundef %0, ptr noundef %1, i32 noundef %2, i32 noundef %3) #0 {
  %5 = alloca ptr, align 8
  %6 = alloca ptr, align 8
  %7 = alloca ptr, align 8
  %8 = alloca i32, align 4
  %9 = alloca i32, align 4
  %10 = alloca ptr, align 8
  %11 = alloca [100 x i8], align 16
  %12 = alloca [1000 x i8], align 16
  %13 = alloca i32, align 4
  store ptr %0, ptr %6, align 8, !tbaa !3
  store ptr %1, ptr %7, align 8, !tbaa !8
  store i32 %2, ptr %8, align 4, !tbaa !10
  store i32 %3, ptr %9, align 4, !tbaa !10
  call void @llvm.lifetime.start.p0(i64 8, ptr %10) #12
  call void @llvm.lifetime.start.p0(i64 100, ptr %11) #12
  call void @llvm.lifetime.start.p0(i64 1000, ptr %12) #12
  %14 = getelementptr inbounds [100 x i8], ptr %11, i64 0, i64 0
  %15 = load i32, ptr %8, align 4, !tbaa !10
  %16 = call i32 (ptr, ptr, ...) @sprintf(ptr noundef %14, ptr noundef @.str.1, i32 noundef %15) #12
  %17 = load ptr, ptr %6, align 8, !tbaa !3
  %18 = getelementptr inbounds [100 x i8], ptr %11, i64 0, i64 0
  call void @Gia_AigerWrite(ptr noundef %17, ptr noundef %18, i32 noundef 0, i32 noundef 0, i32 noundef 0)
  %19 = getelementptr inbounds [1000 x i8], ptr %12, i64 0, i64 0
  %20 = getelementptr inbounds [100 x i8], ptr %11, i64 0, i64 0
  %21 = load ptr, ptr %7, align 8, !tbaa !8
  %22 = getelementptr inbounds [100 x i8], ptr %11, i64 0, i64 0
  %23 = call i32 (ptr, ptr, ...) @sprintf(ptr noundef %19, ptr noundef @.str.2, ptr noundef %20, ptr noundef %21, ptr noundef %22) #12
  %24 = getelementptr inbounds [1000 x i8], ptr %12, i64 0, i64 0
  %25 = call i32 @system(ptr noundef %24)
  %26 = icmp ne i32 %25, 0
  br i1 %26, label %27, label %41

27:                                               ; preds = %4
  %28 = load ptr, ptr @stderr, align 8, !tbaa !12
  %29 = call i32 (ptr, ptr, ...) @fprintf(ptr noundef %28, ptr noundef @.str.3) #12
  %30 = load ptr, ptr @stderr, align 8, !tbaa !12
  %31 = getelementptr inbounds [1000 x i8], ptr %12, i64 0, i64 0
  %32 = call i32 (ptr, ptr, ...) @fprintf(ptr noundef %30, ptr noundef @.str.4, ptr noundef %31) #12
  %33 = load ptr, ptr @stderr, align 8, !tbaa !12
  %34 = call i32 (ptr, ptr, ...) @fprintf(ptr noundef %33, ptr noundef @.str.5) #12
  %35 = load ptr, ptr @stdout, align 8, !tbaa !12
  %36 = call i32 @fflush(ptr noundef %35)
  %37 = getelementptr inbounds [100 x i8], ptr %11, i64 0, i64 0
  %38 = call i32 @unlink(ptr noundef %37) #12
  %39 = load ptr, ptr %6, align 8, !tbaa !3
  %40 = call ptr @Gia_ManDup(ptr noundef %39)
  store ptr %40, ptr %5, align 8
  store i32 1, ptr %13, align 4
  br label %59

41:                                               ; preds = %4
  %42 = getelementptr inbounds [100 x i8], ptr %11, i64 0, i64 0
  %43 = call ptr @Gia_AigerRead(ptr noundef %42, i32 noundef 0, i32 noundef 0, i32 noundef 0)
  store ptr %43, ptr %10, align 8, !tbaa !3
  %44 = getelementptr inbounds [100 x i8], ptr %11, i64 0, i64 0
  %45 = call i32 @unlink(ptr noundef %44) #12
  %46 = load ptr, ptr %10, align 8, !tbaa !3
  %47 = icmp ne ptr %46, null
  br i1 %47, label %48, label %56

48:                                               ; preds = %41
  %49 = load ptr, ptr %10, align 8, !tbaa !3
  %50 = call i32 @Gia_ManAndNum(ptr noundef %49)
  %51 = load ptr, ptr %6, align 8, !tbaa !3
  %52 = call i32 @Gia_ManAndNum(ptr noundef %51)
  %53 = icmp slt i32 %50, %52
  br i1 %53, label %54, label %56

54:                                               ; preds = %48
  %55 = load ptr, ptr %10, align 8, !tbaa !3
  store ptr %55, ptr %5, align 8
  store i32 1, ptr %13, align 4
  br label %59

56:                                               ; preds = %48, %41
  call void @Gia_ManStopP(ptr noundef %10)
  %57 = load ptr, ptr %6, align 8, !tbaa !3
  %58 = call ptr @Gia_ManDup(ptr noundef %57)
  store ptr %58, ptr %5, align 8
  store i32 1, ptr %13, align 4
  br label %59

59:                                               ; preds = %56, %54, %27
  call void @llvm.lifetime.end.p0(i64 1000, ptr %12) #12
  call void @llvm.lifetime.end.p0(i64 100, ptr %11) #12
  call void @llvm.lifetime.end.p0(i64 8, ptr %10) #12
  %60 = load ptr, ptr %5, align 8
  ret ptr %60
}