; Function Attrs: nounwind uwtable
define ptr @Gia_StochProcessOne(ptr noundef %0, ptr noundef %1, i32 noundef %2, i32 %3) local_unnamed_addr #0 {
  %5 = alloca ptr, align 8
  %6 = alloca [100 x i8], align 16
  %7 = alloca [1000 x i8], align 16
  call void @llvm.lifetime.start.p0(i64 8, ptr nonnull %5) #18
  call void @llvm.lifetime.start.p0(i64 100, ptr nonnull %6) #18
  call void @llvm.lifetime.start.p0(i64 1000, ptr nonnull %7) #18
  %8 = call i32 (ptr, ptr, ...) @sprintf(ptr noundef nonnull dereferenceable(1) %6, ptr noundef nonnull dereferenceable(1) @.str.1, i32 noundef %2) #18
  call void @Gia_AigerWrite(ptr noundef %0, ptr noundef nonnull %6, i32 noundef 0, i32 noundef 0, i32 noundef 0) #18
  %9 = call i32 (ptr, ptr, ...) @sprintf(ptr noundef nonnull dereferenceable(1) %7, ptr noundef nonnull dereferenceable(1) @.str.2, ptr noundef nonnull %6, ptr noundef %1, ptr noundef nonnull %6) #18
  %10 = call i32 @system(ptr noundef nonnull %7) #18
  %.not = icmp eq i32 %10, 0
  br i1 %.not, label %21, label %11

11:                                               ; preds = %4
  %12 = load ptr, ptr @stderr, align 8, !tbaa !32
  %13 = call i64 @fwrite(ptr nonnull @.str.3, i64 57, i64 1, ptr %12) #22
  %14 = load ptr, ptr @stderr, align 8, !tbaa !32
  %15 = call i32 (ptr, ptr, ...) @fprintf(ptr noundef %14, ptr noundef nonnull @.str.4, ptr noundef nonnull %7) #23
  %16 = load ptr, ptr @stderr, align 8, !tbaa !32
  %17 = call i64 @fwrite(ptr nonnull @.str.5, i64 29, i64 1, ptr %16) #22
  %18 = load ptr, ptr @stdout, align 8, !tbaa !32
  %19 = call i32 @fflush(ptr noundef %18)
  %20 = call i32 @unlink(ptr noundef nonnull %6) #18
  br label %.sink.split

21:                                               ; preds = %4
  %22 = call ptr @Gia_AigerRead(ptr noundef nonnull %6, i32 noundef 0, i32 noundef 0, i32 noundef 0) #18
  store ptr %22, ptr %5, align 8, !tbaa !46
  %23 = call i32 @unlink(ptr noundef nonnull %6) #18
  %.not7 = icmp eq ptr %22, null
  br i1 %.not7, label %46, label %24

24:                                               ; preds = %21
  %25 = getelementptr inbounds nuw i8, ptr %22, i64 24
  %26 = load i32, ptr %25, align 8, !tbaa !3
  %27 = getelementptr inbounds nuw i8, ptr %22, i64 64
  %28 = load ptr, ptr %27, align 8, !tbaa !28
  %29 = getelementptr i8, ptr %28, i64 4
  %.val.i = load i32, ptr %29, align 4, !tbaa !29
  %30 = getelementptr inbounds nuw i8, ptr %22, i64 72
  %31 = load ptr, ptr %30, align 8, !tbaa !30
  %32 = getelementptr i8, ptr %31, i64 4
  %.val3.i = load i32, ptr %32, align 4, !tbaa !29
  %33 = getelementptr inbounds nuw i8, ptr %0, i64 24
  %34 = load i32, ptr %33, align 8, !tbaa !3
  %35 = getelementptr inbounds nuw i8, ptr %0, i64 64
  %36 = load ptr, ptr %35, align 8, !tbaa !28
  %37 = getelementptr i8, ptr %36, i64 4
  %.val.i8 = load i32, ptr %37, align 4, !tbaa !29
  %38 = getelementptr inbounds nuw i8, ptr %0, i64 72
  %39 = load ptr, ptr %38, align 8, !tbaa !30
  %40 = getelementptr i8, ptr %39, i64 4
  %.val3.i9 = load i32, ptr %40, align 4, !tbaa !29
  %41 = sub i32 %.val.i, %26
  %42 = add i32 %41, %.val3.i
  %43 = sub i32 %.val.i8, %34
  %44 = add i32 %43, %.val3.i9
  %45 = icmp sgt i32 %42, %44
  br i1 %45, label %48, label %46

46:                                               ; preds = %24, %21
  call void @Gia_ManStopP(ptr noundef nonnull %5) #18
  br label %.sink.split

.sink.split:                                      ; preds = %11, %46
  %47 = call ptr @Gia_ManDup(ptr noundef %0) #18
  br label %48

48:                                               ; preds = %.sink.split, %24
  %.0 = phi ptr [ %22, %24 ], [ %47, %.sink.split ]
  call void @llvm.lifetime.end.p0(i64 1000, ptr nonnull %7) #18
  call void @llvm.lifetime.end.p0(i64 100, ptr nonnull %6) #18
  call void @llvm.lifetime.end.p0(i64 8, ptr nonnull %5) #18
  ret ptr %.0
}